
.temp.file.elf:     file format elf32-littleriscv

SYMBOL TABLE:
00000000 l    d  .init	00000000 .init
00000054 l    d  .text	00000000 .text
02000000 l    d  .data	00000000 .data
02000000 l    d  .bss	00000000 .bss
02000000 l    d  .stack	00000000 .stack
00000000 l    d  .riscv.attributes	00000000 .riscv.attributes
00000000 l    d  .comment	00000000 .comment
00000000 l    d  .debug_aranges	00000000 .debug_aranges
00000000 l    d  .debug_info	00000000 .debug_info
00000000 l    d  .debug_abbrev	00000000 .debug_abbrev
00000000 l    d  .debug_line	00000000 .debug_line
00000000 l    d  .debug_str	00000000 .debug_str
00000000 l    d  .debug_loc	00000000 .debug_loc
00000000 l    d  .debug_ranges	00000000 .debug_ranges
00000000 l    d  .debug_frame	00000000 .debug_frame
00000000 l    d  .debug_macro	00000000 .debug_macro
00000000 l    df *ABS*	00000000 tls.c
00000000 l    df *ABS*	00000000 
0000018a l       .debug_info	00000000 
0000018a l       .debug_info	00000000 
0000018a l       .debug_info	00000000 
0000018a l       .debug_info	00000000 
0000018a l       .debug_info	00000000 
0000018a l       .debug_info	00000000 
0000018a l       .debug_info	00000000 
0000018a l       .debug_info	00000000 
0000018a l       .debug_info	00000000 
0000018a l       .debug_info	00000000 
0000018a l       .debug_info	00000000 
0000018a l       .debug_info	00000000 
0000018a l       .debug_info	00000000 
0000018a l       .debug_info	00000000 
0000018a l       .debug_info	00000000 
0000018a l       .debug_info	00000000 
0000018a l       .debug_info	00000000 
0000018a l       .debug_info	00000000 
0000018a l       .debug_info	00000000 
0000018a l       .debug_info	00000000 
0000018a l       .debug_info	00000000 
0000018a l       .debug_info	00000000 
00000000 g       *ABS*	00000000 __data_size
02000800 g       .data	00000000 __global_pointer$
02000000 g       .bss	00000000 __tls_base
00000400 g       *ABS*	00000000 __flash_size
00000008 g       *ABS*	00000000 __stack_size
00000000 g       *ABS*	00000000 __bss_size
0000033c g     F .text	00000024 memcpy
0000018a  w      .debug_info	00000000 .hidden path_planner.c.69c36826
02000000 g       .bss	00000000 __bss_end
00000000 g       *ABS*	00000000 __tbss_size
00000334 g     F .text	00000008 _set_tls
00000000 g     F .init	00000000 _start
02000000 g       *ABS*	00000000 __ram
02000000 g       .bss	00000000 __data_end
0000037c g       .text	00000000 __text_end
02000000 g       .bss	00000000 __bss_start
00000360 g     F .text	0000001c memset
00000054 g     F .text	000002e0 main
00000040 g       *ABS*	00000000 __ram_size
02000040 g       .init	00000000 __stack
00000000 g     F *ABS*	00000000 vfscanf
00000380 g       *ABS*	00000000 __data_source
00000000 g       *ABS*	00000000 __flash
02000000 g       .data	00000000 __data_start
00000000 g     F *ABS*	00000000 vfprintf



Disassembly of section .init:

00000000 <_start>:
   0:	    02000117          	auipc	x2,0x2000
   4:	    04010113          	addi	x2,x2,64 # 2000040 <__stack>
   8:	    02000197          	auipc	x3,0x2000
   c:	    7f818193          	addi	x3,x3,2040 # 2000800 <__global_pointer$>
  10:	    02000517          	auipc	x10,0x2000
  14:	    ff050513          	addi	x10,x10,-16 # 2000000 <__bss_end>
  18:	    38000593          	addi	x11,x0,896
  1c:	    00000613          	addi	x12,x0,0
  20:	    31c000ef          	jal	x1,33c <memcpy>
  24:	    02000517          	auipc	x10,0x2000
  28:	    fdc50513          	addi	x10,x10,-36 # 2000000 <__bss_end>
  2c:	    00000593          	addi	x11,x0,0
  30:	    00000613          	addi	x12,x0,0
  34:	    32c000ef          	jal	x1,360 <memset>
  38:	    02000517          	auipc	x10,0x2000
  3c:	    fc850513          	addi	x10,x10,-56 # 2000000 <__bss_end>
  40:	    2f4000ef          	jal	x1,334 <_set_tls>
  44:	    00000513          	addi	x10,x0,0
  48:	    00000593          	addi	x11,x0,0
  4c:	    008000ef          	jal	x1,54 <main>
  50:	/-- 0000006f          	jal	x0,50 <__ram_size+0x10>

Disassembly of section .text:

00000054 <main>:
     ###     }
     ###     return index;
     ### }
     ### 
     ### // main function
     ### int main(int argc, char const *argv[]) {
  54:	                            fd010113          	addi	x2,x2,-48
     ###     graph[0] = 0b00000000000000000000010001000010;
  58:	                            02000737          	lui	x14,0x2000
     ### int main(int argc, char const *argv[]) {
  5c:	                            02812623          	sw	x8,44(x2)
     ###     graph[1] = 0b00000000000000000000100000000101;
  60:	                            00001637          	lui	x12,0x1
     ###     graph[0] = 0b00000000000000000000010001000010;
  64:	                            44200693          	addi	x13,x0,1090
  68:	                            01070793          	addi	x15,x14,16 # 2000010 <__bss_end+0x10>
  6c:	                            00d72823          	sw	x13,16(x14)
     ###     graph[1] = 0b00000000000000000000100000000101;
  70:	                            80560693          	addi	x13,x12,-2043 # 805 <__flash_size+0x405>
  74:	                            00d7a223          	sw	x13,4(x15)
     ###     graph[2] = 0b00000000000000000000000000111010;
  78:	                            03a00693          	addi	x13,x0,58
  7c:	                            00d7a423          	sw	x13,8(x15)
     ###     graph[3] = 0b00000000000000000000000000000100;
  80:	                            00400693          	addi	x13,x0,4
  84:	                            00d7a623          	sw	x13,12(x15)
     ###     graph[4] = 0b00000000000000000000000000000100;
  88:	                            00d7a823          	sw	x13,16(x15)
     ###     graph[5] = 0b00000000000000000000000000000100;
  8c:	                            00d7aa23          	sw	x13,20(x15)
     ###     graph[6] = 0b00000000000000000000001110000001;
  90:	                            38100693          	addi	x13,x0,897
  94:	                            00d7ac23          	sw	x13,24(x15)
     ###     graph[7] = 0b00000000000000000000000001000000;
  98:	                            04000693          	addi	x13,x0,64
  9c:	                            00d7ae23          	sw	x13,28(x15)
     ###     graph[8] = 0b00000000000000000000000001000000;
  a0:	                            02d7a023          	sw	x13,32(x15)
     ###     graph[9] = 0b00000000000000000000000001000000;
  a4:	                            02d7a223          	sw	x13,36(x15)
     ###     graph[10] = 0b00000101000000000000100000000001;
  a8:	                            050016b7          	lui	x13,0x5001
  ac:	                            80168693          	addi	x13,x13,-2047 # 5000801 <__global_pointer$+0x3000001>
  b0:	                            02d7a423          	sw	x13,40(x15)
     ###     graph[11] = 0b00000000000010000001010000000010;
  b4:	                            000816b7          	lui	x13,0x81
  b8:	                            40268693          	addi	x13,x13,1026 # 81402 <__flash_size+0x81002>
  bc:	                            02d7a623          	sw	x13,44(x15)
     ###     graph[12] = 0b00000000000000000110100000000000;
  c0:	                            000076b7          	lui	x13,0x7
  c4:	                            80068693          	addi	x13,x13,-2048 # 6800 <__flash_size+0x6400>
  c8:	                            02d7a823          	sw	x13,48(x15)
     ###     graph[14] = 0b00000000000000011001000000000000;
  cc:	                            000196b7          	lui	x13,0x19
  d0:	                            02d7ac23          	sw	x13,56(x15)
     ###     graph[15] = 0b00000000000000000100000000000000;
  d4:	                            000046b7          	lui	x13,0x4
  d8:	                            02d7ae23          	sw	x13,60(x15)
     ###     graph[16] = 0b00000000000001100100000000000000;
  dc:	                            000646b7          	lui	x13,0x64
  e0:	                            04d7a023          	sw	x13,64(x15)
     ###     graph[17] = 0b00000000000000010000000000000000;
  e4:	                            000106b7          	lui	x13,0x10
  e8:	                            04d7a223          	sw	x13,68(x15)
     ###     graph[18] = 0b00000000001010010000000000000000;
  ec:	                            002906b7          	lui	x13,0x290
  f0:	                            04d7a423          	sw	x13,72(x15)
     ###     graph[19] = 0b00000000000101000000100000000000;
  f4:	                            001416b7          	lui	x13,0x141
  f8:	                            80068693          	addi	x13,x13,-2048 # 140800 <__flash_size+0x140400>
  fc:	                            04d7a623          	sw	x13,76(x15)
     ###     graph[20] = 0b00000000000010000000000000000000;
 100:	                            000806b7          	lui	x13,0x80
 104:	                            04d7a823          	sw	x13,80(x15)
     ###     graph[21] = 0b00000000110001000000000000000000;
 108:	                            00c406b7          	lui	x13,0xc40
 10c:	                            04d7aa23          	sw	x13,84(x15)
     ###     graph[22] = 0b00000000001000000000000000000000;
 110:	                            002006b7          	lui	x13,0x200
 114:	                            04d7ac23          	sw	x13,88(x15)
     ###     graph[23] = 0b01000001001000000000000000000000;
 118:	                            412006b7          	lui	x13,0x41200
 11c:	                            04d7ae23          	sw	x13,92(x15)
     ###     graph[24] = 0b00000010100000000000010000000000;
 120:	                            028006b7          	lui	x13,0x2800
 124:	                            40068693          	addi	x13,x13,1024 # 2800400 <__global_pointer$+0x7ffc00>
 128:	                            06d7a023          	sw	x13,96(x15)
     ###     graph[25] = 0b00000001000000000000000000000000;
 12c:	                            010006b7          	lui	x13,0x1000
 130:	                            06d7a223          	sw	x13,100(x15)
     ###     graph[26] = 0b00011000000000000000010000000000;
 134:	                            180006b7          	lui	x13,0x18000
 138:	                            40068693          	addi	x13,x13,1024 # 18000400 <__global_pointer$+0x15fffc00>
 13c:	                            06d7a423          	sw	x13,104(x15)
     ###     graph[27] = 0b00000100000000000000000000000000;
 140:	                            040006b7          	lui	x13,0x4000
 144:	                            06d7a623          	sw	x13,108(x15)
     ###     graph[28] = 0b01100100000000000000000000000000;
 148:	                            640006b7          	lui	x13,0x64000
 14c:	                            06d7a823          	sw	x13,112(x15)
     ###     graph[29] = 0b00010000000000000000000000000000;
 150:	                            100006b7          	lui	x13,0x10000
 154:	                            06d7aa23          	sw	x13,116(x15)
     ###     graph[30] = 0b10010000100000000000000000000000;
 158:	                            908006b7          	lui	x13,0x90800
     ###     graph[13] = 0b00000000000000000001000000000000;
 15c:	                            02c7aa23          	sw	x12,52(x15)
     ###     graph[30] = 0b10010000100000000000000000000000;
 160:	                            06d7ac23          	sw	x13,120(x15)
     ###     graph[31] = 0b01000000000000000000000000000000;
 164:	                            400006b7          	lui	x13,0x40000
 168:	                            06d7ae23          	sw	x13,124(x15)
     ###         uint8_t cost[V] = {[0 ... (V-1)] = UINT8_MAX};
     ###         int8_t parent[V] = {[0 ... (V-1)] = -1};
     ###     #else
     ###         uint8_t *cost = (uint8_t *) 0x02000100; 
     ###         int8_t *parent = (int8_t *) 0x02000200; 
     ###         for (uint8_t i = 0; i < V; i++) {
 16c:	                            12070613          	addi	x12,x14,288
     ###     graph[31] = 0b01000000000000000000000000000000;
 170:	                            10070793          	addi	x15,x14,256
     ###             cost[i] = UINT8_MAX;
 174:	                            fff00693          	addi	x13,x0,-1
 178:	                        /-> 00d78023          	sb	x13,0(x15)
     ###             parent[i] = -1;
 17c:	                        |   10d78023          	sb	x13,256(x15)
     ###         for (uint8_t i = 0; i < V; i++) {
 180:	                        |   00178793          	addi	x15,x15,1
 184:	                        \-- fec79ae3          	bne	x15,x12,178 <main+0x124>
     ###         }
     ###     #endif    
     ###     
     ###     cost[START_POINT] = 0;
 188:	                            00074783          	lbu	x15,0(x14)
 18c:	                            02000613          	addi	x12,x0,32
     ### 
     ###     uint32_t processed = 0;
 190:	                            00000513          	addi	x10,x0,0
     ###     cost[START_POINT] = 0;
 194:	                            0ff7f793          	andi	x15,x15,255
 198:	                            00f70733          	add	x14,x14,x15
 19c:	                            10070023          	sb	x0,256(x14)
     ###         if((!(processed & (1<<i))) && (cost[i]<min)) {
 1a0:	                            02000737          	lui	x14,0x2000
     ###     int8_t index = -1;
 1a4:	                            fff00f13          	addi	x30,x0,-1
     ###         if((!(processed & (1<<i))) && (cost[i]<min)) {
 1a8:	                            00100813          	addi	x16,x0,1
     ###     for(uint8_t i = 0; i<V; i++){
 1ac:	                            02000e13          	addi	x28,x0,32
     ###         uint8_t index = 0;
     ###         int8_t parent_index = 0;
     ###         parent_index = min_cost(cost, processed);
     ###         if(parent_index>=0){
     ###             for(index = 0; index<V; index++){
     ###                 if((graph[parent_index] & (1<<index)) && (cost[index] > cost[parent_index] + 1)){
 1b0:	                            01070f93          	addi	x31,x14,16 # 2000010 <__bss_end+0x10>
 1b4:	                            10070293          	addi	x5,x14,256
     ###     graph[31] = 0b01000000000000000000000000000000;
 1b8:	                  /-------> 00000693          	addi	x13,x0,0
     ###     int8_t index = -1;
 1bc:	                  |         fff00793          	addi	x15,x0,-1
     ###     uint8_t min = UINT8_MAX;
 1c0:	                  |         0ff00893          	addi	x17,x0,255
     ###         if((!(processed & (1<<i))) && (cost[i]<min)) {
 1c4:	                  |  /----> 00d815b3          	sll	x11,x16,x13
 1c8:	                  |  |      00a5f5b3          	and	x11,x11,x10
 1cc:	                  |  |  /-- 00059e63          	bne	x11,x0,1e8 <path_planner.c.69c36826+0x5e>
 1d0:	                  |  |  |   00d705b3          	add	x11,x14,x13
 1d4:	                  |  |  |   1005c583          	lbu	x11,256(x11)
 1d8:	                  |  |  +-- 0115f863          	bgeu	x11,x17,1e8 <path_planner.c.69c36826+0x5e>
     ###                 index = i;
 1dc:	                  |  |  |   01869793          	slli	x15,x13,0x18
 1e0:	                  |  |  |   4187d793          	srai	x15,x15,0x18
 1e4:	                  |  |  |   00058893          	addi	x17,x11,0
     ###     for(uint8_t i = 0; i<V; i++){
 1e8:	                  |  |  \-> 00168693          	addi	x13,x13,1 # 40000001 <__global_pointer$+0x3dfff801>
 1ec:	                  |  \----- fdc69ce3          	bne	x13,x28,1c4 <path_planner.c.69c36826+0x3a>
     ###         if(parent_index>=0){
 1f0:	                  |  /----- 05e78463          	beq	x15,x30,238 <path_planner.c.69c36826+0xae>
     ###                 if((graph[parent_index] & (1<<index)) && (cost[index] > cost[parent_index] + 1)){
 1f4:	                  |  |      00279313          	slli	x6,x15,0x2
 1f8:	                  |  |      01f30333          	add	x6,x6,x31
 1fc:	                  |  |      00000693          	addi	x13,x0,0
 200:	                  |  |      00f703b3          	add	x7,x14,x15
 204:	                  |  |  /-> 00032e83          	lw	x29,0(x6)
 208:	                  |  |  |   00d815b3          	sll	x11,x16,x13
 20c:	                  |  |  |   0ff6f893          	andi	x17,x13,255
 210:	                  |  |  |   01d5f5b3          	and	x11,x11,x29
 214:	      /-----------|--|--|-- 0a059263          	bne	x11,x0,2b8 <path_planner.c.69c36826+0x12e>
     ###             for(index = 0; index<V; index++){
 218:	/-----|-----------|--|--|-> 00168693          	addi	x13,x13,1
 21c:	|     |           |  |  \-- ffc694e3          	bne	x13,x28,204 <path_planner.c.69c36826+0x7a>
 220:	|     |           |  |      02000893          	addi	x17,x0,32
     ###                         parent[index] = parent_index;
     ###                         if(index == END_POINT) break; // considering all of equal weight edges
     ###                 }
     ###             }
     ### 
     ###             processed = processed | (1<<parent_index);
 224:	|  /--|-----------|--|----> 00f817b3          	sll	x15,x16,x15
 228:	|  |  |           |  |      00f56533          	or	x10,x10,x15
     ###             if(index == END_POINT) break;
 22c:	|  |  |           |  |      00474783          	lbu	x15,4(x14)
 230:	|  |  |           |  |      0ff7f793          	andi	x15,x15,255
 234:	|  |  |           |  |  /-- 00f88863          	beq	x17,x15,244 <path_planner.c.69c36826+0xba>
     ###     for(uint8_t j = 0; j<V; j++){
 238:	|  |  |           |  \--|-> fff60613          	addi	x12,x12,-1
 23c:	|  |  |           |     |   0ff67613          	andi	x12,x12,255
 240:	|  |  |           \-----|-- f6061ce3          	bne	x12,x0,1b8 <path_planner.c.69c36826+0x2e>
     ###         }
     ###         
     ###     }
     ### 
     ###     // decoding the output
     ###     for (int8_t temp = END_POINT; temp != -1; temp = parent[temp], idx++);
 244:	|  |  |                 \-> 020006b7          	lui	x13,0x2000
 248:	|  |  |                     0046c783          	lbu	x15,4(x13) # 2000004 <__bss_end+0x4>
     ###     uint8_t idx = 0;
 24c:	|  |  |                     00000713          	addi	x14,x0,0
     ###     for (int8_t temp = END_POINT; temp != -1; temp = parent[temp], idx++);
 250:	|  |  |                     fff00613          	addi	x12,x0,-1
 254:	|  |  |                     01879793          	slli	x15,x15,0x18
 258:	|  |  |                     4187d793          	srai	x15,x15,0x18
 25c:	|  |  |                     20068693          	addi	x13,x13,512
 260:	|  |  |     /--------/----X 08c79463          	bne	x15,x12,2e8 <path_planner.c.69c36826+0x15e>
     ### 
     ### 
     ###     path_planned[idx-1] = END_POINT;
 264:	|  |  |     |        |      020007b7          	lui	x15,0x2000
 268:	|  |  |     |        |      0047c683          	lbu	x13,4(x15) # 2000004 <__bss_end+0x4>
 26c:	|  |  |     |        |      02010793          	addi	x15,x2,32
 270:	|  |  |     |        |      00e787b3          	add	x15,x15,x14
 274:	|  |  |     |        |      fcd78fa3          	sb	x13,-33(x15)
     ###     for(int8_t i = idx-2; i>=0; i--){
 278:	|  |  |     |        |      ffe70793          	addi	x15,x14,-2
 27c:	|  |  |     |        |      01879793          	slli	x15,x15,0x18
 280:	|  |  |     |        |      4187d793          	srai	x15,x15,0x18
 284:	|  |  |     |        |      00f106b3          	add	x13,x2,x15
     ###         path_planned[i] = parent[path_planned[i+1]];
 288:	|  |  |     |        |      020005b7          	lui	x11,0x2000
     ###     for(int8_t i = idx-2; i>=0; i--){
 28c:	|  |  |     |  /-----|--/-X 0607d863          	bge	x15,x0,2fc <path_planner.c.69c36826+0x172>
     ### 
     ### 
     ###     // ##############################################
     ### 
     ###     // the node values are written into data memory sequentially.
     ###     for (int i = 0; i < idx; ++i) {
 290:	|  |  |     |  |     |  |   00000793          	addi	x15,x0,0
     ###         NODE_POINT = path_planned[i];
 294:	|  |  |     |  |     |  |   020006b7          	lui	x13,0x2000
     ###     for (int i = 0; i < idx; ++i) {
 298:	|  |  |  /--|--|--/--|--|-X 08e7c463          	blt	x15,x14,320 <path_planner.c.69c36826+0x196>
     ###     }
     ###     // Path Planning Computation Done Flag
     ###     CPU_DONE = 1;
 29c:	|  |  |  |  |  |  |  |  |   020007b7          	lui	x15,0x2000
 2a0:	|  |  |  |  |  |  |  |  |   00100713          	addi	x14,x0,1
 2a4:	|  |  |  |  |  |  |  |  |   00e78623          	sb	x14,12(x15) # 200000c <__bss_end+0xc>
     ###         _put_str("################################\n");
     ### 
     ###     #endif
     ### 
     ###     return 0;
     ### }
 2a8:	|  |  |  |  |  |  |  |  |   02c12403          	lw	x8,44(x2)
 2ac:	|  |  |  |  |  |  |  |  |   00000513          	addi	x10,x0,0
 2b0:	|  |  |  |  |  |  |  |  |   03010113          	addi	x2,x2,48
 2b4:	|  |  |  |  |  |  |  |  |   00008067          	jalr	x0,0(x1)
     ###                 if((graph[parent_index] & (1<<index)) && (cost[index] > cost[parent_index] + 1)){
 2b8:	|  |  \--|--|--|--|--|--|-> 1003c583          	lbu	x11,256(x7)
 2bc:	|  |     |  |  |  |  |  |   00568eb3          	add	x29,x13,x5
 2c0:	|  |     |  |  |  |  |  |   000ec403          	lbu	x8,0(x29)
 2c4:	|  |     |  |  |  |  |  |   00158593          	addi	x11,x11,1 # 2000001 <__bss_end+0x1>
 2c8:	+--|-----|--|--|--|--|--|-- f485d8e3          	bge	x11,x8,218 <path_planner.c.69c36826+0x8e>
     ###                         cost[index] = cost[parent_index] + 1;
 2cc:	|  |     |  |  |  |  |  |   00be8023          	sb	x11,0(x29)
     ###                         parent[index] = parent_index;
 2d0:	|  |     |  |  |  |  |  |   00d705b3          	add	x11,x14,x13
 2d4:	|  |     |  |  |  |  |  |   20f58023          	sb	x15,512(x11)
     ###                         if(index == END_POINT) break; // considering all of equal weight edges
 2d8:	|  |     |  |  |  |  |  |   00474583          	lbu	x11,4(x14)
 2dc:	|  |     |  |  |  |  |  |   0ff5f593          	andi	x11,x11,255
 2e0:	\--|-----|--|--|--|--|--|-- f3159ce3          	bne	x11,x17,218 <path_planner.c.69c36826+0x8e>
 2e4:	   \-----|--|--|--|--|--|-- f41ff06f          	jal	x0,224 <path_planner.c.69c36826+0x9a>
     ###     for (int8_t temp = END_POINT; temp != -1; temp = parent[temp], idx++);
 2e8:	         |  |  |  |  \--|-> 00d787b3          	add	x15,x15,x13
 2ec:	         |  |  |  |     |   00170713          	addi	x14,x14,1
 2f0:	         |  |  |  |     |   00078783          	lb	x15,0(x15)
 2f4:	         |  |  |  |     |   0ff77713          	andi	x14,x14,255
 2f8:	         |  \--|--|-----|-- f69ff06f          	jal	x0,260 <path_planner.c.69c36826+0xd6>
     ###         path_planned[i] = parent[path_planned[i+1]];
 2fc:	         |     |  |     \-> 0016c603          	lbu	x12,1(x13) # 2000001 <__bss_end+0x1>
 300:	         |     |  |         fff78793          	addi	x15,x15,-1
 304:	         |     |  |         01879793          	slli	x15,x15,0x18
 308:	         |     |  |         00c58633          	add	x12,x11,x12
 30c:	         |     |  |         20064603          	lbu	x12,512(x12)
 310:	         |     |  |         4187d793          	srai	x15,x15,0x18
 314:	         |     |  |         fff68693          	addi	x13,x13,-1
 318:	         |     |  |         00c680a3          	sb	x12,1(x13)
     ###     for(int8_t i = idx-2; i>=0; i--){
 31c:	         |     \--|-------- f71ff06f          	jal	x0,28c <path_planner.c.69c36826+0x102>
     ###         NODE_POINT = path_planned[i];
 320:	         |        \-------> 00f10633          	add	x12,x2,x15
 324:	         |                  00064603          	lbu	x12,0(x12)
     ###     for (int i = 0; i < idx; ++i) {
 328:	         |                  00178793          	addi	x15,x15,1
     ###         NODE_POINT = path_planned[i];
 32c:	         |                  00c68423          	sb	x12,8(x13)
     ###     for (int i = 0; i < idx; ++i) {
 330:	         \----------------- f69ff06f          	jal	x0,298 <path_planner.c.69c36826+0x10e>

00000334 <_set_tls>:
 334:	00050213          	addi	x4,x10,0
 338:	00008067          	jalr	x0,0(x1)

0000033c <memcpy>:
 33c:	       00050313          	addi	x6,x10,0
 340:	/----- 00060e63          	beq	x12,x0,35c <memcpy+0x20>
 344:	|  /-> 00058383          	lb	x7,0(x11)
 348:	|  |   00730023          	sb	x7,0(x6)
 34c:	|  |   fff60613          	addi	x12,x12,-1
 350:	|  |   00130313          	addi	x6,x6,1
 354:	|  |   00158593          	addi	x11,x11,1
 358:	|  \-- fe0616e3          	bne	x12,x0,344 <memcpy+0x8>
 35c:	\----> 00008067          	jalr	x0,0(x1)

00000360 <memset>:
 360:	       00050313          	addi	x6,x10,0
 364:	/----- 00060a63          	beq	x12,x0,378 <memset+0x18>
 368:	|  /-> 00b30023          	sb	x11,0(x6)
 36c:	|  |   fff60613          	addi	x12,x12,-1
 370:	|  |   00130313          	addi	x6,x6,1
 374:	|  \-- fe061ae3          	bne	x12,x0,368 <memset+0x8>
 378:	\----> 00008067          	jalr	x0,0(x1)

0000037c <__text_end>:
 37c:	0000                	c.unimp
	...
